target datalayout = "e-m:e-p270:32:32-p271:32:32-p272:64:64-i64:64-i128:128-f80:128-n8:16:32:64-S128"
target triple = "x86_64-pc-linux-gnu"

%struct.agxbuf = type { %union.anon.1 }
%union.anon.1 = type { %struct.anon }
%struct.anon = type { ptr, i64, i64, [7 x i8], i8 }

@stderr = external global ptr, align 8
@.str.3 = private unnamed_addr constant [49 x i8] c"out of memory when trying to allocate %zu bytes\0A\00", align 1

; Function Attrs: inlinehint nounwind uwtable
define internal ptr @gv_strndup(ptr noundef %0, i64 noundef %1) #2 {
  %3 = alloca ptr, align 8
  %4 = alloca i64, align 8
  %5 = alloca ptr, align 8
  store ptr %0, ptr %3, align 8, !tbaa !3
  store i64 %1, ptr %4, align 8, !tbaa !9
  call void @llvm.lifetime.start.p0(i64 8, ptr %5) #13
  %6 = load ptr, ptr %3, align 8, !tbaa !3
  %7 = load i64, ptr %4, align 8, !tbaa !9
  %8 = call noalias ptr @strndup(ptr noundef %6, i64 noundef %7) #13
  store ptr %8, ptr %5, align 8, !tbaa !3
  %9 = load ptr, ptr %5, align 8, !tbaa !3
  %10 = icmp eq ptr %9, null
  br i1 %10, label %11, label %16

11:                                               ; preds = %2
  %12 = load ptr, ptr @stderr, align 8, !tbaa !23
  %13 = load i64, ptr %4, align 8, !tbaa !9
  %14 = add i64 %13, 1
  %15 = call i32 (ptr, ptr, ...) @fprintf(ptr noundef %12, ptr noundef @.str.3, i64 noundef %14) #13
  call void @graphviz_exit(i32 noundef 1) #14
  unreachable

16:                                               ; preds = %2
  %17 = load ptr, ptr %5, align 8, !tbaa !3
  call void @llvm.lifetime.end.p0(i64 8, ptr %5) #13
  ret ptr %17
}

; Function Attrs: inlinehint nounwind uwtable
define internal zeroext i1 @agxbuf_is_inline(ptr noundef %0) #2 {
  %2 = alloca ptr, align 8
  store ptr %0, ptr %2, align 8, !tbaa !8
  %3 = load ptr, ptr %2, align 8, !tbaa !8
  %4 = getelementptr inbounds nuw %struct.agxbuf, ptr %3, i32 0, i32 0
  %5 = getelementptr inbounds nuw %struct.anon, ptr %4, i32 0, i32 4
  %6 = load i8, ptr %5, align 1, !tbaa !19
  %7 = zext i8 %6 to i32
  %8 = icmp slt i32 %7, 255
  ret i1 %8
}

; Function Attrs: inlinehint nounwind uwtable
define internal i64 @agxbsizeof(ptr noundef %0) #2 {
  %2 = alloca i64, align 8
  %3 = alloca ptr, align 8
  store ptr %0, ptr %3, align 8, !tbaa !8
  %4 = load ptr, ptr %3, align 8, !tbaa !8
  %5 = call zeroext i1 @agxbuf_is_inline(ptr noundef %4)
  br i1 %5, label %6, label %7

6:                                                ; preds = %1
  store i64 31, ptr %2, align 8
  br label %12

7:                                                ; preds = %1
  %8 = load ptr, ptr %3, align 8, !tbaa !8
  %9 = getelementptr inbounds nuw %struct.agxbuf, ptr %8, i32 0, i32 0
  %10 = getelementptr inbounds nuw %struct.anon, ptr %9, i32 0, i32 2
  %11 = load i64, ptr %10, align 8, !tbaa !19
  store i64 %11, ptr %2, align 8
  br label %12

12:                                               ; preds = %7, %6
  %13 = load i64, ptr %2, align 8
  ret i64 %13
}

; Function Attrs: inlinehint nounwind uwtable
define internal i64 @agxblen(ptr noundef %0) #2 {
  %2 = alloca i64, align 8
  %3 = alloca ptr, align 8
  store ptr %0, ptr %3, align 8, !tbaa !8
  %4 = load ptr, ptr %3, align 8, !tbaa !8
  %5 = call zeroext i1 @agxbuf_is_inline(ptr noundef %4)
  br i1 %5, label %6, label %14

6:                                                ; preds = %1
  %7 = load ptr, ptr %3, align 8, !tbaa !8
  %8 = getelementptr inbounds nuw %struct.agxbuf, ptr %7, i32 0, i32 0
  %9 = getelementptr inbounds nuw %struct.anon, ptr %8, i32 0, i32 4
  %10 = load i8, ptr %9, align 1, !tbaa !19
  %11 = zext i8 %10 to i32
  %12 = sub nsw i32 %11, 0
  %13 = sext i32 %12 to i64
  store i64 %13, ptr %2, align 8
  br label %19

14:                                               ; preds = %1
  %15 = load ptr, ptr %3, align 8, !tbaa !8
  %16 = getelementptr inbounds nuw %struct.agxbuf, ptr %15, i32 0, i32 0
  %17 = getelementptr inbounds nuw %struct.anon, ptr %16, i32 0, i32 1
  %18 = load i64, ptr %17, align 8, !tbaa !19
  store i64 %18, ptr %2, align 8
  br label %19

19:                                               ; preds = %14, %6
  %20 = load i64, ptr %2, align 8
  ret i64 %20
}

; Function Attrs: inlinehint nounwind uwtable
define internal ptr @agxbdisown(ptr noundef %0) #2 {
  %2 = alloca ptr, align 8
  %3 = alloca ptr, align 8
  store ptr %0, ptr %2, align 8, !tbaa !8
  call void @llvm.lifetime.start.p0(i64 8, ptr %3) #13
  %4 = load ptr, ptr %2, align 8, !tbaa !8
  %5 = call zeroext i1 @agxbuf_is_inline(ptr noundef %4)
  br i1 %5, label %6, label %13

6:                                                ; preds = %1
  %7 = load ptr, ptr %2, align 8, !tbaa !8
  %8 = getelementptr inbounds nuw %struct.agxbuf, ptr %7, i32 0, i32 0
  %9 = getelementptr inbounds [31 x i8], ptr %8, i64 0, i64 0
  %10 = load ptr, ptr %2, align 8, !tbaa !8
  %11 = call i64 @agxblen(ptr noundef %10)
  %12 = call ptr @gv_strndup(ptr noundef %9, i64 noundef %11)
  store ptr %12, ptr %3, align 8, !tbaa !3
  br label %20

13:                                               ; preds = %1
  %14 = load ptr, ptr %2, align 8, !tbaa !8
  %15 = call i32 @agxbputc(ptr noundef %14, i8 noundef signext 0)
  %16 = load ptr, ptr %2, align 8, !tbaa !8
  %17 = getelementptr inbounds nuw %struct.agxbuf, ptr %16, i32 0, i32 0
  %18 = getelementptr inbounds nuw %struct.anon, ptr %17, i32 0, i32 0
  %19 = load ptr, ptr %18, align 8, !tbaa !19
  store ptr %19, ptr %3, align 8, !tbaa !3
  br label %20

20:                                               ; preds = %13, %6
  %21 = load ptr, ptr %2, align 8, !tbaa !8
  call void @llvm.memset.p0.i64(ptr align 8 %21, i8 0, i64 32, i1 false)
  %22 = load ptr, ptr %3, align 8, !tbaa !3
  call void @llvm.lifetime.end.p0(i64 8, ptr %3) #13
  ret ptr %22
}

; Function Attrs: inlinehint nounwind uwtable
define internal i32 @agxbputc(ptr noundef %0, i8 noundef signext %1) #2 {
  %3 = alloca ptr, align 8
  %4 = alloca i8, align 1
  %5 = alloca i64, align 8
  store ptr %0, ptr %3, align 8, !tbaa !8
  store i8 %1, ptr %4, align 1, !tbaa !19
  %6 = load ptr, ptr %3, align 8, !tbaa !8
  %7 = call i64 @agxblen(ptr noundef %6)
  %8 = load ptr, ptr %3, align 8, !tbaa !8
  %9 = call i64 @agxbsizeof(ptr noundef %8)
  %10 = icmp uge i64 %7, %9
  br i1 %10, label %11, label %13

11:                                               ; preds = %2
  %12 = load ptr, ptr %3, align 8, !tbaa !8
  call void @agxbmore(ptr noundef %12, i64 noundef 1)
  br label %13

13:                                               ; preds = %11, %2
  call void @llvm.lifetime.start.p0(i64 8, ptr %5) #13
  %14 = load ptr, ptr %3, align 8, !tbaa !8
  %15 = call i64 @agxblen(ptr noundef %14)
  store i64 %15, ptr %5, align 8, !tbaa !9
  %16 = load ptr, ptr %3, align 8, !tbaa !8
  %17 = call zeroext i1 @agxbuf_is_inline(ptr noundef %16)
  br i1 %17, label %18, label %29

18:                                               ; preds = %13
  %19 = load i8, ptr %4, align 1, !tbaa !19
  %20 = load ptr, ptr %3, align 8, !tbaa !8
  %21 = getelementptr inbounds nuw %struct.agxbuf, ptr %20, i32 0, i32 0
  %22 = load i64, ptr %5, align 8, !tbaa !9
  %23 = getelementptr inbounds nuw [31 x i8], ptr %21, i64 0, i64 %22
  store i8 %19, ptr %23, align 1, !tbaa !19
  %24 = load ptr, ptr %3, align 8, !tbaa !8
  %25 = getelementptr inbounds nuw %struct.agxbuf, ptr %24, i32 0, i32 0
  %26 = getelementptr inbounds nuw %struct.anon, ptr %25, i32 0, i32 4
  %27 = load i8, ptr %26, align 1, !tbaa !19
  %28 = add i8 %27, 1
  store i8 %28, ptr %26, align 1, !tbaa !19
  br label %42

29:                                               ; preds = %13
  %30 = load i8, ptr %4, align 1, !tbaa !19
  %31 = load ptr, ptr %3, align 8, !tbaa !8
  %32 = getelementptr inbounds nuw %struct.agxbuf, ptr %31, i32 0, i32 0
  %33 = getelementptr inbounds nuw %struct.anon, ptr %32, i32 0, i32 0
  %34 = load ptr, ptr %33, align 8, !tbaa !19
  %35 = load i64, ptr %5, align 8, !tbaa !9
  %36 = getelementptr inbounds nuw i8, ptr %34, i64 %35
  store i8 %30, ptr %36, align 1, !tbaa !19
  %37 = load ptr, ptr %3, align 8, !tbaa !8
  %38 = getelementptr inbounds nuw %struct.agxbuf, ptr %37, i32 0, i32 0
  %39 = getelementptr inbounds nuw %struct.anon, ptr %38, i32 0, i32 1
  %40 = load i64, ptr %39, align 8, !tbaa !19
  %41 = add i64 %40, 1
  store i64 %41, ptr %39, align 8, !tbaa !19
  br label %42

42:                                               ; preds = %29, %18
  call void @llvm.lifetime.end.p0(i64 8, ptr %5) #13
  ret i32 0
}

; Function Attrs: inlinehint nounwind uwtable
define internal void @agxbfree(ptr noundef %0) #2 {
  %2 = alloca ptr, align 8
  store ptr %0, ptr %2, align 8, !tbaa !8
  %3 = load ptr, ptr %2, align 8, !tbaa !8
  %4 = getelementptr inbounds nuw %struct.agxbuf, ptr %3, i32 0, i32 0
  %5 = getelementptr inbounds nuw %struct.anon, ptr %4, i32 0, i32 4
  %6 = load i8, ptr %5, align 1, !tbaa !19
  %7 = zext i8 %6 to i32
  %8 = icmp eq i32 %7, 255
  br i1 %8, label %9, label %14

9:                                                ; preds = %1
  %10 = load ptr, ptr %2, align 8, !tbaa !8
  %11 = getelementptr inbounds nuw %struct.agxbuf, ptr %10, i32 0, i32 0
  %12 = getelementptr inbounds nuw %struct.anon, ptr %11, i32 0, i32 0
  %13 = load ptr, ptr %12, align 8, !tbaa !19
  call void @free(ptr noundef %13) #13
  br label %14

14:                                               ; preds = %9, %1
  ret void
}

; Function Attrs: nounwind uwtable
define internal ptr @parseInt(ptr noundef %0, ptr noundef %1) #0 {
  %3 = alloca ptr, align 8
  %4 = alloca ptr, align 8
  %5 = alloca ptr, align 8
  %6 = alloca ptr, align 8
  %7 = alloca i32, align 4
  store ptr %0, ptr %4, align 8, !tbaa !3
  store ptr %1, ptr %5, align 8, !tbaa !26
  call void @llvm.lifetime.start.p0(i64 8, ptr %6) #13
  %8 = load ptr, ptr %4, align 8, !tbaa !3
  %9 = call i64 @strtol(ptr noundef %8, ptr noundef %6, i32 noundef 10) #13
  %10 = trunc i64 %9 to i32
  %11 = load ptr, ptr %5, align 8, !tbaa !26
  store i32 %10, ptr %11, align 4, !tbaa !18
  %12 = load ptr, ptr %4, align 8, !tbaa !3
  %13 = load ptr, ptr %6, align 8, !tbaa !3
  %14 = icmp eq ptr %12, %13
  br i1 %14, label %15, label %16

15:                                               ; preds = %2
  store ptr null, ptr %3, align 8
  store i32 1, ptr %7, align 4
  br label %18

16:                                               ; preds = %2
  %17 = load ptr, ptr %6, align 8, !tbaa !3
  store ptr %17, ptr %3, align 8
  store i32 1, ptr %7, align 4
  br label %18

18:                                               ; preds = %16, %15
  call void @llvm.lifetime.end.p0(i64 8, ptr %6) #13
  %19 = load ptr, ptr %3, align 8
  ret ptr %19
}

; Function Attrs: nounwind uwtable
define internal ptr @parseString(ptr noundef %0, ptr noundef %1) #0 {
  %3 = alloca ptr, align 8
  %4 = alloca ptr, align 8
  %5 = alloca ptr, align 8
  %6 = alloca i32, align 4
  %7 = alloca i32, align 4
  %8 = alloca %struct.agxbuf, align 8
  %9 = alloca i32, align 4
  %10 = alloca i32, align 4
  store ptr %0, ptr %4, align 8, !tbaa !3
  store ptr %1, ptr %5, align 8, !tbaa !78
  call void @llvm.lifetime.start.p0(i64 4, ptr %6) #13
  %11 = load ptr, ptr %4, align 8, !tbaa !3
  %12 = call ptr @parseInt(ptr noundef %11, ptr noundef %6)
  store ptr %12, ptr %4, align 8, !tbaa !3
  %13 = load ptr, ptr %4, align 8, !tbaa !3
  %14 = icmp ne ptr %13, null
  br i1 %14, label %15, label %18

15:                                               ; preds = %2
  %16 = load i32, ptr %6, align 4, !tbaa !18
  %17 = icmp sle i32 %16, 0
  br i1 %17, label %18, label %19

18:                                               ; preds = %15, %2
  store ptr null, ptr %3, align 8
  store i32 1, ptr %7, align 4
  br label %101

19:                                               ; preds = %15
  br label %20

20:                                               ; preds = %32, %19
  %21 = load ptr, ptr %4, align 8, !tbaa !3
  %22 = load i8, ptr %21, align 1, !tbaa !19
  %23 = sext i8 %22 to i32
  %24 = icmp ne i32 %23, 0
  br i1 %24, label %25, label %30

25:                                               ; preds = %20
  %26 = load ptr, ptr %4, align 8, !tbaa !3
  %27 = load i8, ptr %26, align 1, !tbaa !19
  %28 = sext i8 %27 to i32
  %29 = icmp ne i32 %28, 45
  br label %30

30:                                               ; preds = %25, %20
  %31 = phi i1 [ false, %20 ], [ %29, %25 ]
  br i1 %31, label %32, label %35

32:                                               ; preds = %30
  %33 = load ptr, ptr %4, align 8, !tbaa !3
  %34 = getelementptr inbounds nuw i8, ptr %33, i32 1
  store ptr %34, ptr %4, align 8, !tbaa !3
  br label %20, !llvm.loop !80

35:                                               ; preds = %30
  %36 = load ptr, ptr %4, align 8, !tbaa !3
  %37 = load i8, ptr %36, align 1, !tbaa !19
  %38 = icmp ne i8 %37, 0
  br i1 %38, label %39, label %42

39:                                               ; preds = %35
  %40 = load ptr, ptr %4, align 8, !tbaa !3
  %41 = getelementptr inbounds nuw i8, ptr %40, i32 1
  store ptr %41, ptr %4, align 8, !tbaa !3
  br label %43

42:                                               ; preds = %35
  store ptr null, ptr %3, align 8
  store i32 1, ptr %7, align 4
  br label %101

43:                                               ; preds = %39
  call void @llvm.lifetime.start.p0(i64 32, ptr %8) #13
  call void @llvm.memset.p0.i64(ptr align 8 %8, i8 0, i64 32, i1 false)
  call void @llvm.lifetime.start.p0(i64 4, ptr %9) #13
  store i32 0, ptr %9, align 4, !tbaa !18
  call void @llvm.lifetime.start.p0(i64 4, ptr %10) #13
  store i32 0, ptr %10, align 4, !tbaa !18
  br label %44

44:                                               ; preds = %88, %43
  %45 = load i32, ptr %10, align 4, !tbaa !18
  %46 = load i32, ptr %6, align 4, !tbaa !18
  %47 = icmp slt i32 %45, %46
  br i1 %47, label %49, label %48

48:                                               ; preds = %44
  store i32 4, ptr %7, align 4
  br label %91

49:                                               ; preds = %44
  %50 = load ptr, ptr %4, align 8, !tbaa !3
  %51 = load i32, ptr %9, align 4, !tbaa !18
  %52 = sext i32 %51 to i64
  %53 = getelementptr inbounds i8, ptr %50, i64 %52
  %54 = load i8, ptr %53, align 1, !tbaa !19
  %55 = sext i8 %54 to i32
  %56 = icmp eq i32 %55, 0
  br i1 %56, label %57, label %58

57:                                               ; preds = %49
  call void @agxbfree(ptr noundef %8)
  store ptr null, ptr %3, align 8
  store i32 1, ptr %7, align 4
  br label %91

58:                                               ; preds = %49
  %59 = load ptr, ptr %4, align 8, !tbaa !3
  %60 = load i32, ptr %9, align 4, !tbaa !18
  %61 = sext i32 %60 to i64
  %62 = getelementptr inbounds i8, ptr %59, i64 %61
  %63 = load i8, ptr %62, align 1, !tbaa !19
  %64 = call i32 @agxbputc(ptr noundef %8, i8 noundef signext %63)
  %65 = load ptr, ptr %4, align 8, !tbaa !3
  %66 = load i32, ptr %9, align 4, !tbaa !18
  %67 = sext i32 %66 to i64
  %68 = getelementptr inbounds i8, ptr %65, i64 %67
  %69 = load i8, ptr %68, align 1, !tbaa !19
  %70 = sext i8 %69 to i32
  %71 = icmp ne i32 %70, 92
  br i1 %71, label %84, label %72

72:                                               ; preds = %58
  %73 = load i32, ptr %9, align 4, !tbaa !18
  %74 = icmp sgt i32 %73, 0
  br i1 %74, label %75, label %87

75:                                               ; preds = %72
  %76 = load ptr, ptr %4, align 8, !tbaa !3
  %77 = load i32, ptr %9, align 4, !tbaa !18
  %78 = sub nsw i32 %77, 1
  %79 = sext i32 %78 to i64
  %80 = getelementptr inbounds i8, ptr %76, i64 %79
  %81 = load i8, ptr %80, align 1, !tbaa !19
  %82 = sext i8 %81 to i32
  %83 = icmp eq i32 %82, 92
  br i1 %83, label %84, label %87

84:                                               ; preds = %75, %58
  %85 = load i32, ptr %10, align 4, !tbaa !18
  %86 = add nsw i32 %85, 1
  store i32 %86, ptr %10, align 4, !tbaa !18
  br label %87

87:                                               ; preds = %84, %75, %72
  br label %88

88:                                               ; preds = %87
  %89 = load i32, ptr %9, align 4, !tbaa !18
  %90 = add nsw i32 %89, 1
  store i32 %90, ptr %9, align 4, !tbaa !18
  br label %44, !llvm.loop !81

91:                                               ; preds = %57, %48
  call void @llvm.lifetime.end.p0(i64 4, ptr %10) #13
  %92 = load i32, ptr %7, align 4
  switch i32 %92, label %100 [
    i32 4, label %93
  ]

93:                                               ; preds = %91
  %94 = call ptr @agxbdisown(ptr noundef %8)
  %95 = load ptr, ptr %5, align 8, !tbaa !78
  store ptr %94, ptr %95, align 8, !tbaa !3
  %96 = load ptr, ptr %4, align 8, !tbaa !3
  %97 = load i32, ptr %9, align 4, !tbaa !18
  %98 = sext i32 %97 to i64
  %99 = getelementptr inbounds i8, ptr %96, i64 %98
  store ptr %99, ptr %3, align 8
  store i32 1, ptr %7, align 4
  br label %100

100:                                              ; preds = %93, %91
  call void @llvm.lifetime.end.p0(i64 4, ptr %9) #13
  call void @llvm.lifetime.end.p0(i64 32, ptr %8) #13
  br label %101

101:                                              ; preds = %100, %42, %18
  call void @llvm.lifetime.end.p0(i64 4, ptr %6) #13
  %102 = load ptr, ptr %3, align 8
  ret ptr %102
}