; Function Attrs: nounwind uwtable
define internal fastcc ptr @parseString(ptr noundef nonnull %0, ptr noundef writeonly captures(none) %1) unnamed_addr #0 {
  %3 = alloca ptr, align 8
  %4 = alloca %struct.agxbuf, align 8
  call void @llvm.lifetime.start.p0(i64 8, ptr nonnull %3) #20
  %5 = call i64 @strtol(ptr noundef nonnull %0, ptr noundef nonnull %3, i32 noundef 10) #20
  %6 = trunc i64 %5 to i32
  %7 = load ptr, ptr %3, align 8, !tbaa !23
  %8 = icmp eq ptr %0, %7
  call void @llvm.lifetime.end.p0(i64 8, ptr nonnull %3) #20
  %9 = icmp eq ptr %7, null
  %10 = or i1 %8, %9
  %11 = icmp slt i32 %6, 1
  %or.cond = select i1 %10, i1 true, i1 %11
  br i1 %or.cond, label %.loopexit, label %.preheader

.preheader:                                       ; preds = %2, %13
  %.028 = phi ptr [ %14, %13 ], [ %7, %2 ]
  %12 = load i8, ptr %.028, align 1, !tbaa !15
  switch i8 %12, label %13 [
    i8 0, label %.loopexit
    i8 45, label %15
  ]

13:                                               ; preds = %.preheader
  %14 = getelementptr inbounds nuw i8, ptr %.028, i64 1
  br label %.preheader, !llvm.loop !78

15:                                               ; preds = %.preheader
  %16 = getelementptr inbounds nuw i8, ptr %.028, i64 1
  call void @llvm.lifetime.start.p0(i64 32, ptr nonnull %4) #20
  call void @llvm.memset.p0.i64(ptr noundef nonnull align 8 dereferenceable(32) %4, i8 0, i64 32, i1 false)
  %.not3544 = icmp sgt i32 %6, 0
  br i1 %.not3544, label %.lr.ph, label %agxblen.exit.i40

.lr.ph:                                           ; preds = %15
  %17 = getelementptr inbounds nuw i8, ptr %4, i64 31
  %18 = getelementptr inbounds nuw i8, ptr %4, i64 8
  %19 = getelementptr inbounds nuw i8, ptr %4, i64 16
  br label %20

20:                                               ; preds = %.lr.ph, %50
  %.val38 = phi i8 [ 0, %.lr.ph ], [ %.val.i53, %50 ]
  %.val.i.i = phi i8 [ 0, %.lr.ph ], [ %.val.i.i51, %50 ]
  %indvars.iv = phi i64 [ 0, %.lr.ph ], [ %indvars.iv.next, %50 ]
  %.046 = phi i32 [ 0, %.lr.ph ], [ %.1, %50 ]
  %21 = getelementptr inbounds nuw i8, ptr %16, i64 %indvars.iv
  %22 = load i8, ptr %21, align 1, !tbaa !15
  %23 = icmp eq i8 %22, 0
  br i1 %23, label %24, label %agxbsizeof.exit.i

24:                                               ; preds = %20
  %25 = icmp eq i8 %.val38, -1
  br i1 %25, label %26, label %agxbfree.exit

26:                                               ; preds = %24
  %.val = load ptr, ptr %4, align 8
  tail call void @free(ptr noundef %.val) #20
  br label %agxbfree.exit

agxbsizeof.exit.i:                                ; preds = %20
  %.not.i.i = icmp eq i8 %.val.i.i, -1
  %27 = load i64, ptr %18, align 8
  %28 = load i64, ptr %19, align 8
  %29 = zext i8 %.val.i.i to i64
  %.0.i20.i = select i1 %.not.i.i, i64 %27, i64 %29
  %.0.i14.i = select i1 %.not.i.i, i64 %28, i64 31
  %.not.i = icmp ult i64 %.0.i20.i, %.0.i14.i
  br i1 %.not.i, label %31, label %30

30:                                               ; preds = %agxbsizeof.exit.i
  call fastcc void @agxbmore(ptr noundef nonnull %4, i64 noundef 1)
  %.val.i15.pre.i = load i8, ptr %17, align 1, !tbaa !15
  br label %31

31:                                               ; preds = %30, %agxbsizeof.exit.i
  %.val.i54 = phi i8 [ %.val.i15.pre.i, %30 ], [ %.val38, %agxbsizeof.exit.i ]
  %.val.i.i49 = phi i8 [ %.val.i15.pre.i, %30 ], [ %.val.i.i, %agxbsizeof.exit.i ]
  %.not.i16.i = icmp eq i8 %.val.i.i49, -1
  br i1 %.not.i16.i, label %37, label %32

32:                                               ; preds = %31
  %33 = zext i8 %.val.i.i49 to i64
  %34 = getelementptr inbounds nuw [31 x i8], ptr %4, i64 0, i64 %33
  store i8 %22, ptr %34, align 1, !tbaa !15
  %35 = load i8, ptr %17, align 1, !tbaa !15
  %36 = add i8 %35, 1
  store i8 %36, ptr %17, align 1, !tbaa !15
  br label %agxbputc.exit

37:                                               ; preds = %31
  %38 = load i64, ptr %18, align 8, !tbaa !15
  %39 = load ptr, ptr %4, align 8, !tbaa !15
  %40 = getelementptr inbounds nuw i8, ptr %39, i64 %38
  store i8 %22, ptr %40, align 1, !tbaa !15
  %41 = add i64 %38, 1
  store i64 %41, ptr %18, align 8, !tbaa !15
  br label %agxbputc.exit

agxbputc.exit:                                    ; preds = %32, %37
  %.val.i53 = phi i8 [ %36, %32 ], [ %.val.i54, %37 ]
  %.val.i.i51 = phi i8 [ %36, %32 ], [ -1, %37 ]
  %42 = load i8, ptr %21, align 1, !tbaa !15
  %.not33 = icmp eq i8 %42, 92
  br i1 %.not33, label %43, label %48

43:                                               ; preds = %agxbputc.exit
  %.not34 = icmp eq i64 %indvars.iv, 0
  br i1 %.not34, label %50, label %44

44:                                               ; preds = %43
  %45 = getelementptr i8, ptr %21, i64 -1
  %46 = load i8, ptr %45, align 1, !tbaa !15
  %47 = icmp eq i8 %46, 92
  br i1 %47, label %48, label %50

48:                                               ; preds = %44, %agxbputc.exit
  %49 = add nsw i32 %.046, 1
  br label %50

50:                                               ; preds = %43, %44, %48
  %.1 = phi i32 [ %49, %48 ], [ %.046, %44 ], [ %.046, %43 ]
  %indvars.iv.next = add nuw nsw i64 %indvars.iv, 1
  %.not35 = icmp slt i32 %.1, %6
  br i1 %.not35, label %20, label %.critedge37, !llvm.loop !79

.critedge37:                                      ; preds = %50
  %51 = and i64 %indvars.iv.next, 4294967295
  %52 = getelementptr inbounds nuw i8, ptr %4, i64 31
  %.not.i39 = icmp eq i8 %.val.i53, -1
  br i1 %.not.i39, label %agxbsizeof.exit.i.i, label %agxblen.exit.i40

agxblen.exit.i40:                                 ; preds = %15, %.critedge37
  %.024.lcssa61 = phi i64 [ %51, %.critedge37 ], [ 0, %15 ]
  %.val.i59 = phi i8 [ %.val.i53, %.critedge37 ], [ 0, %15 ]
  %53 = zext i8 %.val.i59 to i64
  %54 = call noalias ptr @strndup(ptr noundef nonnull readonly %4, i64 noundef %53) #20
  %55 = icmp eq ptr %54, null
  br i1 %55, label %56, label %agxbdisown.exit

56:                                               ; preds = %agxblen.exit.i40
  %57 = load ptr, ptr @stderr, align 8, !tbaa !3
  %58 = add nuw nsw i64 %53, 1
  %59 = tail call i32 (ptr, ptr, ...) @fprintf(ptr noundef %57, ptr noundef nonnull @.str.3, i64 noundef %58) #22
  tail call fastcc void @graphviz_exit() #23
  unreachable

agxbsizeof.exit.i.i:                              ; preds = %.critedge37
  %60 = getelementptr inbounds nuw i8, ptr %4, i64 8
  %61 = load i64, ptr %60, align 8, !tbaa !15
  %62 = getelementptr inbounds nuw i8, ptr %4, i64 16
  %63 = load i64, ptr %62, align 8, !tbaa !15
  %.not.i7.i = icmp ult i64 %61, %63
  br i1 %.not.i7.i, label %.thread.i, label %64

64:                                               ; preds = %agxbsizeof.exit.i.i
  call fastcc void @agxbmore(ptr noundef nonnull %4, i64 noundef 1)
  %.val.i15.pre.i.i = load i8, ptr %52, align 1, !tbaa !15
  %.not.i16.i.i = icmp eq i8 %.val.i15.pre.i.i, -1
  br i1 %.not.i16.i.i, label %..thread_crit_edge.i, label %65

..thread_crit_edge.i:                             ; preds = %64
  %.pre.i = load i64, ptr %60, align 8, !tbaa !15
  br label %.thread.i

65:                                               ; preds = %64
  %66 = zext i8 %.val.i15.pre.i.i to i64
  %67 = getelementptr inbounds nuw [31 x i8], ptr %4, i64 0, i64 %66
  store i8 0, ptr %67, align 1, !tbaa !15
  %.pre = load ptr, ptr %4, align 8, !tbaa !15
  br label %agxbdisown.exit

.thread.i:                                        ; preds = %..thread_crit_edge.i, %agxbsizeof.exit.i.i
  %68 = phi i64 [ %.pre.i, %..thread_crit_edge.i ], [ %61, %agxbsizeof.exit.i.i ]
  %69 = load ptr, ptr %4, align 8, !tbaa !15
  %70 = getelementptr inbounds nuw i8, ptr %69, i64 %68
  store i8 0, ptr %70, align 1, !tbaa !15
  br label %agxbdisown.exit

agxbdisown.exit:                                  ; preds = %65, %.thread.i, %agxblen.exit.i40
  %.024.lcssa60 = phi i64 [ %.024.lcssa61, %agxblen.exit.i40 ], [ %51, %.thread.i ], [ %51, %65 ]
  %.0.i = phi ptr [ %54, %agxblen.exit.i40 ], [ %69, %.thread.i ], [ %.pre, %65 ]
  store ptr %.0.i, ptr %1, align 8, !tbaa !23
  %71 = getelementptr inbounds nuw i8, ptr %16, i64 %.024.lcssa60
  br label %agxbfree.exit

agxbfree.exit:                                    ; preds = %26, %24, %agxbdisown.exit
  %.2 = phi ptr [ %71, %agxbdisown.exit ], [ null, %24 ], [ null, %26 ]
  call void @llvm.lifetime.end.p0(i64 32, ptr nonnull %4) #20
  br label %.loopexit

.loopexit:                                        ; preds = %.preheader, %2, %agxbfree.exit
  %.026 = phi ptr [ %.2, %agxbfree.exit ], [ null, %2 ], [ null, %.preheader ]
  ret ptr %.026
}